; ModuleID = 'bench/linux/original/win_minmax.ll'
source_filename = "bench/linux/original/win_minmax.ll"
target datalayout = "e-m:e-p270:32:32-p271:32:32-p272:64:64-i64:64-i128:128-f80:128-n8:16:32:64-S128"
target triple = "x86_64-unknown-linux-gnu"

module asm ".section \22.export_symbol\22,\22a\22 ; __export_symbol_minmax_running_max: ; .asciz \22\22 ; .asciz \22\22 ; .balign 8 ; .quad minmax_running_max ; .previous"

@__UNIQUE_ID___addressable_minmax_running_max303 = internal global ptr @minmax_running_max, section ".discard.addressable", align 8
@llvm.compiler.used = appending global [1 x ptr] [ptr @__UNIQUE_ID___addressable_minmax_running_max303], section "llvm.metadata"

; Function Attrs: fn_ret_thunk_extern mustprogress nofree norecurse nosync nounwind null_pointer_is_valid willreturn memory(argmem: readwrite)
define dso_local i32 @minmax_running_max(ptr nocapture noundef %0, i32 noundef %1, i32 noundef %2, i32 noundef %3) #0 align 16 {
  %5 = getelementptr inbounds i8, ptr %0, i64 4
  %6 = load i32, ptr %5, align 4
  %7 = icmp ugt i32 %6, %3
  br i1 %7, label %8, label %13, !prof !5

8:                                                ; preds = %4
  %9 = getelementptr i8, ptr %0, i64 16
  %10 = load i32, ptr %9, align 4
  %11 = sub i32 %2, %10
  %12 = icmp ugt i32 %11, %1
  br i1 %12, label %13, label %17, !prof !6

13:                                               ; preds = %8, %4
  %14 = getelementptr i8, ptr %0, i64 16
  %15 = getelementptr i8, ptr %0, i64 8
  store i32 %2, ptr %0, align 4
  store i32 %3, ptr %5, align 4
  %16 = load i64, ptr %0, align 4
  store i64 %16, ptr %15, align 4
  store i64 %16, ptr %14, align 4
  br label %84

17:                                               ; preds = %8
  %18 = getelementptr i8, ptr %0, i64 12
  %19 = load i32, ptr %18, align 4
  %20 = icmp ugt i32 %19, %3
  br i1 %20, label %27, label %21, !prof !5

21:                                               ; preds = %17
  %22 = getelementptr i8, ptr %0, i64 8
  %23 = zext i32 %3 to i64
  %24 = shl nuw i64 %23, 32
  %25 = zext i32 %2 to i64
  %26 = or disjoint i64 %24, %25
  store i64 %26, ptr %22, align 4
  br label %36

27:                                               ; preds = %17
  %28 = getelementptr i8, ptr %0, i64 20
  %29 = load i32, ptr %28, align 4
  %30 = icmp ugt i32 %29, %3
  br i1 %30, label %39, label %31, !prof !5

31:                                               ; preds = %27
  %32 = zext i32 %3 to i64
  %33 = shl nuw i64 %32, 32
  %34 = zext i32 %2 to i64
  %35 = or disjoint i64 %33, %34
  br label %36

36:                                               ; preds = %31, %21
  %37 = phi i64 [ %35, %31 ], [ %26, %21 ]
  store i64 %37, ptr %9, align 4
  %38 = trunc i64 %37 to i32
  br label %39

39:                                               ; preds = %36, %27
  %40 = phi i32 [ %38, %36 ], [ %10, %27 ]
  %41 = load i32, ptr %0, align 4
  %42 = sub i32 %2, %41
  %43 = icmp ugt i32 %42, %1
  %44 = getelementptr i8, ptr %0, i64 8
  br i1 %43, label %45, label %60, !prof !6

45:                                               ; preds = %39
  %46 = load i64, ptr %44, align 4
  store i64 %46, ptr %0, align 4
  %47 = load i64, ptr %9, align 4
  store i64 %47, ptr %44, align 4
  %48 = zext i32 %3 to i64
  %49 = shl nuw i64 %48, 32
  %50 = zext i32 %2 to i64
  %51 = or disjoint i64 %49, %50
  store i64 %51, ptr %9, align 4
  %52 = trunc i64 %46 to i32
  %53 = sub i32 %2, %52
  %54 = icmp ugt i32 %53, %1
  %55 = lshr i64 %46, 32
  %56 = trunc i64 %55 to i32
  br i1 %54, label %57, label %84, !prof !6

57:                                               ; preds = %45
  store i64 %47, ptr %0, align 4
  store i64 %51, ptr %44, align 4
  %58 = lshr i64 %47, 32
  %59 = trunc i64 %58 to i32
  br label %81

60:                                               ; preds = %39
  %61 = load i32, ptr %44, align 4
  %62 = icmp eq i32 %61, %41
  br i1 %62, label %63, label %71, !prof !6

63:                                               ; preds = %60
  %64 = lshr i32 %1, 2
  %65 = icmp ugt i32 %42, %64
  br i1 %65, label %66, label %71

66:                                               ; preds = %63
  %67 = zext i32 %3 to i64
  %68 = shl nuw i64 %67, 32
  %69 = zext i32 %2 to i64
  %70 = or disjoint i64 %68, %69
  store i64 %70, ptr %44, align 4
  br label %81

71:                                               ; preds = %63, %60
  %72 = icmp eq i32 %40, %61
  br i1 %72, label %73, label %84, !prof !6

73:                                               ; preds = %71
  %74 = lshr i32 %1, 1
  %75 = icmp ugt i32 %42, %74
  br i1 %75, label %76, label %84

76:                                               ; preds = %73
  %77 = zext i32 %3 to i64
  %78 = shl nuw i64 %77, 32
  %79 = zext i32 %2 to i64
  %80 = or disjoint i64 %78, %79
  br label %81

81:                                               ; preds = %76, %66, %57
  %82 = phi i32 [ %59, %57 ], [ %6, %66 ], [ %6, %76 ]
  %83 = phi i64 [ %51, %57 ], [ %70, %66 ], [ %80, %76 ]
  store i64 %83, ptr %9, align 4
  br label %84

84:                                               ; preds = %45, %71, %73, %81, %13
  %85 = phi i32 [ %3, %13 ], [ %82, %81 ], [ %6, %73 ], [ %6, %71 ], [ %56, %45 ]
  ret i32 %85
}

; Function Attrs: fn_ret_thunk_extern mustprogress nofree norecurse nosync nounwind null_pointer_is_valid willreturn memory(argmem: readwrite)
define dso_local i32 @minmax_running_min(ptr nocapture noundef %0, i32 noundef %1, i32 noundef %2, i32 noundef %3) local_unnamed_addr #0 align 16 {
  %5 = getelementptr inbounds i8, ptr %0, i64 4
  %6 = load i32, ptr %5, align 4
  %7 = icmp ult i32 %6, %3
  br i1 %7, label %8, label %13, !prof !5

8:                                                ; preds = %4
  %9 = getelementptr i8, ptr %0, i64 16
  %10 = load i32, ptr %9, align 4
  %11 = sub i32 %2, %10
  %12 = icmp ugt i32 %11, %1
  br i1 %12, label %13, label %17, !prof !6

13:                                               ; preds = %8, %4
  %14 = getelementptr i8, ptr %0, i64 16
  %15 = getelementptr i8, ptr %0, i64 8
  store i32 %2, ptr %0, align 4
  store i32 %3, ptr %5, align 4
  %16 = load i64, ptr %0, align 4
  store i64 %16, ptr %15, align 4
  store i64 %16, ptr %14, align 4
  br label %84

17:                                               ; preds = %8
  %18 = getelementptr i8, ptr %0, i64 12
  %19 = load i32, ptr %18, align 4
  %20 = icmp ult i32 %19, %3
  br i1 %20, label %27, label %21, !prof !5

21:                                               ; preds = %17
  %22 = getelementptr i8, ptr %0, i64 8
  %23 = zext i32 %3 to i64
  %24 = shl nuw i64 %23, 32
  %25 = zext i32 %2 to i64
  %26 = or disjoint i64 %24, %25
  store i64 %26, ptr %22, align 4
  br label %36

27:                                               ; preds = %17
  %28 = getelementptr i8, ptr %0, i64 20
  %29 = load i32, ptr %28, align 4
  %30 = icmp ult i32 %29, %3
  br i1 %30, label %39, label %31, !prof !5

31:                                               ; preds = %27
  %32 = zext i32 %3 to i64
  %33 = shl nuw i64 %32, 32
  %34 = zext i32 %2 to i64
  %35 = or disjoint i64 %33, %34
  br label %36

36:                                               ; preds = %31, %21
  %37 = phi i64 [ %35, %31 ], [ %26, %21 ]
  store i64 %37, ptr %9, align 4
  %38 = trunc i64 %37 to i32
  br label %39

39:                                               ; preds = %36, %27
  %40 = phi i32 [ %38, %36 ], [ %10, %27 ]
  %41 = load i32, ptr %0, align 4
  %42 = sub i32 %2, %41
  %43 = icmp ugt i32 %42, %1
  %44 = getelementptr i8, ptr %0, i64 8
  br i1 %43, label %45, label %60, !prof !6

45:                                               ; preds = %39
  %46 = load i64, ptr %44, align 4
  store i64 %46, ptr %0, align 4
  %47 = load i64, ptr %9, align 4
  store i64 %47, ptr %44, align 4
  %48 = zext i32 %3 to i64
  %49 = shl nuw i64 %48, 32
  %50 = zext i32 %2 to i64
  %51 = or disjoint i64 %49, %50
  store i64 %51, ptr %9, align 4
  %52 = trunc i64 %46 to i32
  %53 = sub i32 %2, %52
  %54 = icmp ugt i32 %53, %1
  %55 = lshr i64 %46, 32
  %56 = trunc i64 %55 to i32
  br i1 %54, label %57, label %84, !prof !6

57:                                               ; preds = %45
  store i64 %47, ptr %0, align 4
  store i64 %51, ptr %44, align 4
  %58 = lshr i64 %47, 32
  %59 = trunc i64 %58 to i32
  br label %81

60:                                               ; preds = %39
  %61 = load i32, ptr %44, align 4
  %62 = icmp eq i32 %61, %41
  br i1 %62, label %63, label %71, !prof !6

63:                                               ; preds = %60
  %64 = lshr i32 %1, 2
  %65 = icmp ugt i32 %42, %64
  br i1 %65, label %66, label %71

66:                                               ; preds = %63
  %67 = zext i32 %3 to i64
  %68 = shl nuw i64 %67, 32
  %69 = zext i32 %2 to i64
  %70 = or disjoint i64 %68, %69
  store i64 %70, ptr %44, align 4
  br label %81

71:                                               ; preds = %63, %60
  %72 = icmp eq i32 %40, %61
  br i1 %72, label %73, label %84, !prof !6

73:                                               ; preds = %71
  %74 = lshr i32 %1, 1
  %75 = icmp ugt i32 %42, %74
  br i1 %75, label %76, label %84

76:                                               ; preds = %73
  %77 = zext i32 %3 to i64
  %78 = shl nuw i64 %77, 32
  %79 = zext i32 %2 to i64
  %80 = or disjoint i64 %78, %79
  br label %81

81:                                               ; preds = %76, %66, %57
  %82 = phi i32 [ %59, %57 ], [ %6, %66 ], [ %6, %76 ]
  %83 = phi i64 [ %51, %57 ], [ %70, %66 ], [ %80, %76 ]
  store i64 %83, ptr %9, align 4
  br label %84

84:                                               ; preds = %45, %71, %73, %81, %13
  %85 = phi i32 [ %3, %13 ], [ %82, %81 ], [ %6, %73 ], [ %6, %71 ], [ %56, %45 ]
  ret i32 %85
}


!llvm.module.flags = !{!0, !1, !2, !3, !4}

!0 = !{i32 1, !"wchar_size", i32 2}
!1 = !{i32 8, !"cf-protection-branch", i32 1}
!2 = !{i32 4, !"function_return_thunk_extern", i32 1}
!3 = !{i32 4, !"indirect_branch_cs_prefix", i32 1}
!4 = !{i32 4, !"SkipRaxSetup", i32 1}
!5 = !{!"branch_weights", i32 2000, i32 1}
!6 = !{!"branch_weights", i32 1, i32 2000}
